; Function Attrs: mustprogress uwtable
define hidden void @_ZN6Assimp3ASE6Parser22ParseLV4MeshLongTripleEPj(ptr noundef nonnull align 8 captures(none) dereferenceable(188) %0, ptr noundef writeonly captures(none) %1) local_unnamed_addr #1 align 2 {
  br label %4

3:                                                ; preds = %4
  ret void

4:                                                ; preds = %2, %4
  %indvars.iv = phi i64 [ 0, %2 ], [ %indvars.iv.next, %4 ]
  %5 = getelementptr inbounds nuw i32, ptr %1, i64 %indvars.iv
  tail call void @_ZN6Assimp3ASE6Parser16ParseLV4MeshLongERj(ptr noundef nonnull align 8 dereferenceable(188) %0, ptr noundef nonnull align 4 dereferenceable(4) %5)
  %indvars.iv.next = add nuw nsw i64 %indvars.iv, 1
  %exitcond.not = icmp eq i64 %indvars.iv.next, 3
  br i1 %exitcond.not, label %3, label %4, !llvm.loop !75
}